; Function Attrs: null_pointer_is_valid sspstrong uwtable
define internal i32 @dissect_tnef_file(ptr noundef %0, ptr noundef %1, ptr noundef %2, ptr readnone captures(none) %3) #0 {
  %5 = getelementptr inbounds nuw i8, ptr %1, i64 8
  %6 = load ptr, ptr %5, align 8
  tail call void @col_set_str(ptr noundef %6, i32 noundef 35, ptr noundef nonnull @.str.113)
  %7 = load ptr, ptr %5, align 8
  tail call void @col_set_str(ptr noundef %7, i32 noundef 37, ptr noundef nonnull @.str.186)
  %8 = load ptr, ptr %5, align 8
  tail call void @col_append_str(ptr noundef %8, i32 noundef 25, ptr noundef nonnull @.str.112)
  %9 = tail call i32 @dissect_tnef(ptr noundef %0, ptr noundef %1, ptr noundef %2, ptr poison)
  %10 = tail call i32 @tvb_captured_length(ptr noundef %0)
  ret i32 %10
}